target datalayout = "e-m:e-p270:32:32-p271:32:32-p272:64:64-i64:64-i128:128-f80:128-n8:16:32:64-S128"
target triple = "x86_64-pc-linux-gnu"

%"struct.rocksdb::BufferInfo" = type { %"class.rocksdb::AlignedBuffer", i64, i64, i8, ptr, %"class.std::function", i64 }
%"class.rocksdb::AlignedBuffer" = type { i64, %"class.std::unique_ptr", i64, i64, ptr }
%"class.std::unique_ptr" = type { %"struct.std::__uniq_ptr_data" }
%"struct.std::__uniq_ptr_data" = type { %"class.std::__uniq_ptr_impl" }
%"class.std::__uniq_ptr_impl" = type { %"class.std::tuple" }
%"class.std::tuple" = type { %"struct.std::_Tuple_impl" }
%"struct.std::_Tuple_impl" = type { %"struct.std::_Tuple_impl.0", %"struct.std::_Head_base.1" }
%"struct.std::_Tuple_impl.0" = type { %"struct.std::_Head_base" }
%"struct.std::_Head_base" = type { %"class.std::function" }
%"struct.std::_Head_base.1" = type { ptr }
%"class.std::function" = type { %"class.std::_Function_base", ptr }
%"class.std::_Function_base" = type { %"union.std::_Any_data", ptr }
%"union.std::_Any_data" = type { %"union.std::_Nocopy_types" }
%"union.std::_Nocopy_types" = type { { i64, i64 } }
%"class.rocksdb::FilePrefetchBuffer" = type { %"class.std::deque", %"class.std::deque", ptr, i64, i64, i64, i64, i8, i8, i8, i64, i64, i64, i64, i8, ptr, ptr, ptr, i32, %"class.std::function.10", i64 }
%"class.std::deque" = type { %"class.std::_Deque_base" }
%"class.std::_Deque_base" = type { %"struct.std::_Deque_base<rocksdb::BufferInfo *, std::allocator<rocksdb::BufferInfo *>>::_Deque_impl" }
%"struct.std::_Deque_base<rocksdb::BufferInfo *, std::allocator<rocksdb::BufferInfo *>>::_Deque_impl" = type { %"struct.std::_Deque_base<rocksdb::BufferInfo *, std::allocator<rocksdb::BufferInfo *>>::_Deque_impl_data" }
%"struct.std::_Deque_base<rocksdb::BufferInfo *, std::allocator<rocksdb::BufferInfo *>>::_Deque_impl_data" = type { ptr, i64, %"struct.std::_Deque_iterator", %"struct.std::_Deque_iterator" }
%"struct.std::_Deque_iterator" = type { ptr, ptr, ptr, ptr }
%"class.std::function.10" = type { %"class.std::_Function_base", ptr }

; Function Attrs: mustprogress nounwind uwtable
define linkonce_odr void @_ZNSt15_Deque_iteratorIPN7rocksdb10BufferInfoERS2_PS2_EC2ERKS5_(ptr noundef nonnull align 8 dereferenceable(32) %0, ptr noundef nonnull align 8 dereferenceable(32) %1) unnamed_addr #2 comdat align 2 {
  %3 = alloca ptr, align 8
  %4 = alloca ptr, align 8
  store ptr %0, ptr %3, align 8, !tbaa !131
  store ptr %1, ptr %4, align 8, !tbaa !131
  %5 = load ptr, ptr %3, align 8
  %6 = getelementptr inbounds nuw %"struct.std::_Deque_iterator", ptr %5, i32 0, i32 0
  %7 = load ptr, ptr %4, align 8, !tbaa !131
  %8 = getelementptr inbounds nuw %"struct.std::_Deque_iterator", ptr %7, i32 0, i32 0
  %9 = load ptr, ptr %8, align 8, !tbaa !133
  store ptr %9, ptr %6, align 8, !tbaa !133
  %10 = getelementptr inbounds nuw %"struct.std::_Deque_iterator", ptr %5, i32 0, i32 1
  %11 = load ptr, ptr %4, align 8, !tbaa !131
  %12 = getelementptr inbounds nuw %"struct.std::_Deque_iterator", ptr %11, i32 0, i32 1
  %13 = load ptr, ptr %12, align 8, !tbaa !144
  store ptr %13, ptr %10, align 8, !tbaa !144
  %14 = getelementptr inbounds nuw %"struct.std::_Deque_iterator", ptr %5, i32 0, i32 2
  %15 = load ptr, ptr %4, align 8, !tbaa !131
  %16 = getelementptr inbounds nuw %"struct.std::_Deque_iterator", ptr %15, i32 0, i32 2
  %17 = load ptr, ptr %16, align 8, !tbaa !142
  store ptr %17, ptr %14, align 8, !tbaa !142
  %18 = getelementptr inbounds nuw %"struct.std::_Deque_iterator", ptr %5, i32 0, i32 3
  %19 = load ptr, ptr %4, align 8, !tbaa !131
  %20 = getelementptr inbounds nuw %"struct.std::_Deque_iterator", ptr %19, i32 0, i32 3
  %21 = load ptr, ptr %20, align 8, !tbaa !143
  store ptr %21, ptr %18, align 8, !tbaa !143
  ret void
}

; Function Attrs: mustprogress nounwind uwtable
define linkonce_odr noundef nonnull align 8 dereferenceable(8) ptr @_ZNKSt15_Deque_iteratorIPN7rocksdb10BufferInfoERS2_PS2_EdeEv(ptr noundef nonnull align 8 dereferenceable(32) %0) #2 comdat align 2 {
  %2 = alloca ptr, align 8
  store ptr %0, ptr %2, align 8, !tbaa !131
  %3 = load ptr, ptr %2, align 8
  %4 = getelementptr inbounds nuw %"struct.std::_Deque_iterator", ptr %3, i32 0, i32 0
  %5 = load ptr, ptr %4, align 8, !tbaa !133
  ret ptr %5
}

; Function Attrs: mustprogress nounwind uwtable
define linkonce_odr void @_ZNSt5dequeIPN7rocksdb10BufferInfoESaIS2_EE5beginEv(ptr dead_on_unwind noalias writable sret(%"struct.std::_Deque_iterator") align 8 %0, ptr noundef nonnull align 8 dereferenceable(80) %1) #2 comdat align 2 {
  %3 = alloca ptr, align 8
  %4 = alloca ptr, align 8
  store ptr %0, ptr %3, align 8
  store ptr %1, ptr %4, align 8, !tbaa !122
  %5 = load ptr, ptr %4, align 8
  %6 = getelementptr inbounds nuw %"class.std::_Deque_base", ptr %5, i32 0, i32 0
  %7 = getelementptr inbounds nuw %"struct.std::_Deque_base<rocksdb::BufferInfo *, std::allocator<rocksdb::BufferInfo *>>::_Deque_impl_data", ptr %6, i32 0, i32 2
  call void @_ZNSt15_Deque_iteratorIPN7rocksdb10BufferInfoERS2_PS2_EC2ERKS5_(ptr noundef nonnull align 8 dereferenceable(32) %0, ptr noundef nonnull align 8 dereferenceable(32) %7) #16
  ret void
}

; Function Attrs: mustprogress nounwind uwtable
define linkonce_odr noundef zeroext i1 @_ZSteqRKSt15_Deque_iteratorIPN7rocksdb10BufferInfoERS2_PS2_ES7_(ptr noundef nonnull align 8 dereferenceable(32) %0, ptr noundef nonnull align 8 dereferenceable(32) %1) #2 comdat {
  %3 = alloca ptr, align 8
  %4 = alloca ptr, align 8
  store ptr %0, ptr %3, align 8, !tbaa !131
  store ptr %1, ptr %4, align 8, !tbaa !131
  %5 = load ptr, ptr %3, align 8, !tbaa !131
  %6 = getelementptr inbounds nuw %"struct.std::_Deque_iterator", ptr %5, i32 0, i32 0
  %7 = load ptr, ptr %6, align 8, !tbaa !133
  %8 = load ptr, ptr %4, align 8, !tbaa !131
  %9 = getelementptr inbounds nuw %"struct.std::_Deque_iterator", ptr %8, i32 0, i32 0
  %10 = load ptr, ptr %9, align 8, !tbaa !133
  %11 = icmp eq ptr %7, %10
  ret i1 %11
}

; Function Attrs: inlinehint mustprogress uwtable
define linkonce_odr void @_ZN7rocksdb10RecordTickEPNS_10StatisticsEjm(ptr noundef %0, i32 noundef %1, i64 noundef %2) #5 comdat {
  %4 = alloca ptr, align 8
  %5 = alloca i32, align 4
  %6 = alloca i64, align 8
  store ptr %0, ptr %4, align 8, !tbaa !95
  store i32 %1, ptr %5, align 4, !tbaa !96
  store i64 %2, ptr %6, align 8, !tbaa !11
  %7 = load ptr, ptr %4, align 8, !tbaa !95
  %8 = icmp ne ptr %7, null
  br i1 %8, label %9, label %16

9:                                                ; preds = %3
  %10 = load ptr, ptr %4, align 8, !tbaa !95
  %11 = load i32, ptr %5, align 4, !tbaa !96
  %12 = load i64, ptr %6, align 8, !tbaa !11
  %13 = load ptr, ptr %10, align 8, !tbaa !98
  %14 = getelementptr inbounds ptr, ptr %13, i64 22
  %15 = load ptr, ptr %14, align 8
  call void %15(ptr noundef nonnull align 8 dereferenceable(33) %10, i32 noundef %11, i64 noundef %12)
  br label %16

16:                                               ; preds = %9, %3
  ret void
}

; Function Attrs: mustprogress nounwind uwtable
define linkonce_odr void @_ZN7rocksdb13AlignedBuffer5ClearEv(ptr noundef nonnull align 8 dereferenceable(72) %0) #2 comdat align 2 {
  %2 = alloca ptr, align 8
  store ptr %0, ptr %2, align 8, !tbaa !33
  %3 = load ptr, ptr %2, align 8
  %4 = getelementptr inbounds nuw %"class.rocksdb::AlignedBuffer", ptr %3, i32 0, i32 3
  store i64 0, ptr %4, align 8, !tbaa !37
  ret void
}

; Function Attrs: mustprogress nounwind uwtable
define linkonce_odr noundef i64 @_ZNK7rocksdb13AlignedBuffer11CurrentSizeEv(ptr noundef nonnull align 8 dereferenceable(72) %0) #2 comdat align 2 {
  %2 = alloca ptr, align 8
  store ptr %0, ptr %2, align 8, !tbaa !33
  %3 = load ptr, ptr %2, align 8
  %4 = getelementptr inbounds nuw %"class.rocksdb::AlignedBuffer", ptr %3, i32 0, i32 3
  %5 = load i64, ptr %4, align 8, !tbaa !37
  ret i64 %5
}

; Function Attrs: mustprogress nounwind uwtable
define linkonce_odr noundef nonnull align 8 dereferenceable(8) ptr @_ZNSt5dequeIPN7rocksdb10BufferInfoESaIS2_EE5frontEv(ptr noundef nonnull align 8 dereferenceable(80) %0) #2 comdat align 2 {
  %2 = alloca ptr, align 8
  %3 = alloca %"struct.std::_Deque_iterator", align 8
  store ptr %0, ptr %2, align 8, !tbaa !122
  %4 = load ptr, ptr %2, align 8
  call void @llvm.lifetime.start.p0(i64 32, ptr %3) #16
  call void @_ZNSt5dequeIPN7rocksdb10BufferInfoESaIS2_EE5beginEv(ptr dead_on_unwind writable sret(%"struct.std::_Deque_iterator") align 8 %3, ptr noundef nonnull align 8 dereferenceable(80) %4) #16
  %5 = call noundef nonnull align 8 dereferenceable(8) ptr @_ZNKSt15_Deque_iteratorIPN7rocksdb10BufferInfoERS2_PS2_EdeEv(ptr noundef nonnull align 8 dereferenceable(32) %3) #16
  call void @llvm.lifetime.end.p0(i64 32, ptr %3) #16
  ret ptr %5
}

; Function Attrs: mustprogress nounwind uwtable
define linkonce_odr noundef zeroext i1 @_ZNKSt5dequeIPN7rocksdb10BufferInfoESaIS2_EE5emptyEv(ptr noundef nonnull align 8 dereferenceable(80) %0) #2 comdat align 2 {
  %2 = alloca ptr, align 8
  store ptr %0, ptr %2, align 8, !tbaa !122
  %3 = load ptr, ptr %2, align 8
  %4 = getelementptr inbounds nuw %"class.std::_Deque_base", ptr %3, i32 0, i32 0
  %5 = getelementptr inbounds nuw %"struct.std::_Deque_base<rocksdb::BufferInfo *, std::allocator<rocksdb::BufferInfo *>>::_Deque_impl_data", ptr %4, i32 0, i32 3
  %6 = getelementptr inbounds nuw %"class.std::_Deque_base", ptr %3, i32 0, i32 0
  %7 = getelementptr inbounds nuw %"struct.std::_Deque_base<rocksdb::BufferInfo *, std::allocator<rocksdb::BufferInfo *>>::_Deque_impl_data", ptr %6, i32 0, i32 2
  %8 = call noundef zeroext i1 @_ZSteqRKSt15_Deque_iteratorIPN7rocksdb10BufferInfoERS2_PS2_ES7_(ptr noundef nonnull align 8 dereferenceable(32) %5, ptr noundef nonnull align 8 dereferenceable(32) %7) #16
  ret i1 %8
}

; Function Attrs: mustprogress uwtable
define linkonce_odr void @_ZN7rocksdb18FilePrefetchBuffer11UpdateStatsEbm(ptr noundef nonnull align 8 dereferenceable(320) %0, i1 noundef zeroext %1, i64 noundef %2) #0 comdat align 2 {
  %4 = alloca ptr, align 8
  %5 = alloca i8, align 1
  %6 = alloca i64, align 8
  store ptr %0, ptr %4, align 8, !tbaa !4
  %7 = zext i1 %1 to i8
  store i8 %7, ptr %5, align 1, !tbaa !13
  store i64 %2, ptr %6, align 8, !tbaa !11
  %8 = load ptr, ptr %4, align 8
  %9 = load i8, ptr %5, align 1, !tbaa !13, !range !31, !noundef !32
  %10 = trunc i8 %9 to i1
  br i1 %10, label %11, label %14

11:                                               ; preds = %3
  %12 = getelementptr inbounds nuw %"class.rocksdb::FilePrefetchBuffer", ptr %8, i32 0, i32 17
  %13 = load ptr, ptr %12, align 8, !tbaa !60
  call void @_ZN7rocksdb10RecordTickEPNS_10StatisticsEjm(ptr noundef %13, i32 noundef 210, i64 noundef 1)
  br label %14

14:                                               ; preds = %11, %3
  %15 = load i64, ptr %6, align 8, !tbaa !11
  %16 = icmp ugt i64 %15, 0
  br i1 %16, label %17, label %21

17:                                               ; preds = %14
  %18 = getelementptr inbounds nuw %"class.rocksdb::FilePrefetchBuffer", ptr %8, i32 0, i32 17
  %19 = load ptr, ptr %18, align 8, !tbaa !60
  %20 = load i64, ptr %6, align 8, !tbaa !11
  call void @_ZN7rocksdb10RecordTickEPNS_10StatisticsEjm(ptr noundef %19, i32 noundef 209, i64 noundef %20)
  br label %21

21:                                               ; preds = %17, %14
  ret void
}

; Function Attrs: mustprogress nounwind uwtable
define linkonce_odr void @_ZN7rocksdb13AlignedBuffer9AlignmentEm(ptr noundef nonnull align 8 dereferenceable(72) %0, i64 noundef %1) #2 comdat align 2 {
  %3 = alloca ptr, align 8
  %4 = alloca i64, align 8
  store ptr %0, ptr %3, align 8, !tbaa !33
  store i64 %1, ptr %4, align 8, !tbaa !11
  %5 = load ptr, ptr %3, align 8
  %6 = load i64, ptr %4, align 8, !tbaa !11
  %7 = getelementptr inbounds nuw %"class.rocksdb::AlignedBuffer", ptr %5, i32 0, i32 0
  store i64 %6, ptr %7, align 8, !tbaa !36
  ret void
}

; Function Attrs: mustprogress uwtable
define linkonce_odr void @_ZN7rocksdb10BufferInfo11ClearBufferEv(ptr noundef nonnull align 8 dereferenceable(144) %0) #0 comdat align 2 {
  %2 = alloca ptr, align 8
  store ptr %0, ptr %2, align 8, !tbaa !9
  %3 = load ptr, ptr %2, align 8
  %4 = getelementptr inbounds nuw %"struct.rocksdb::BufferInfo", ptr %3, i32 0, i32 0
  call void @_ZN7rocksdb13AlignedBuffer5ClearEv(ptr noundef nonnull align 8 dereferenceable(72) %4)
  %5 = getelementptr inbounds nuw %"struct.rocksdb::BufferInfo", ptr %3, i32 0, i32 6
  store i64 0, ptr %5, align 8, !tbaa !89
  %6 = getelementptr inbounds nuw %"struct.rocksdb::BufferInfo", ptr %3, i32 0, i32 2
  store i64 0, ptr %6, align 8, !tbaa !100
  ret void
}

; Function Attrs: mustprogress nounwind uwtable
define linkonce_odr noundef i64 @_ZN7rocksdb10BufferInfo11CurrentSizeEv(ptr noundef nonnull align 8 dereferenceable(144) %0) #2 comdat align 2 {
  %2 = alloca ptr, align 8
  store ptr %0, ptr %2, align 8, !tbaa !9
  %3 = load ptr, ptr %2, align 8
  %4 = getelementptr inbounds nuw %"struct.rocksdb::BufferInfo", ptr %3, i32 0, i32 0
  %5 = call noundef i64 @_ZNK7rocksdb13AlignedBuffer11CurrentSizeEv(ptr noundef nonnull align 8 dereferenceable(72) %4)
  ret i64 %5
}

; Function Attrs: mustprogress nounwind uwtable
define linkonce_odr noundef zeroext i1 @_ZN7rocksdb10BufferInfo16IsOffsetInBufferEm(ptr noundef nonnull align 8 dereferenceable(144) %0, i64 noundef %1) #2 comdat align 2 {
  %3 = alloca ptr, align 8
  %4 = alloca i64, align 8
  store ptr %0, ptr %3, align 8, !tbaa !9
  store i64 %1, ptr %4, align 8, !tbaa !11
  %5 = load ptr, ptr %3, align 8
  %6 = load i64, ptr %4, align 8, !tbaa !11
  %7 = getelementptr inbounds nuw %"struct.rocksdb::BufferInfo", ptr %5, i32 0, i32 1
  %8 = load i64, ptr %7, align 8, !tbaa !17
  %9 = icmp uge i64 %6, %8
  br i1 %9, label %10, label %18

10:                                               ; preds = %2
  %11 = load i64, ptr %4, align 8, !tbaa !11
  %12 = getelementptr inbounds nuw %"struct.rocksdb::BufferInfo", ptr %5, i32 0, i32 1
  %13 = load i64, ptr %12, align 8, !tbaa !17
  %14 = getelementptr inbounds nuw %"struct.rocksdb::BufferInfo", ptr %5, i32 0, i32 0
  %15 = call noundef i64 @_ZNK7rocksdb13AlignedBuffer11CurrentSizeEv(ptr noundef nonnull align 8 dereferenceable(72) %14)
  %16 = add i64 %13, %15
  %17 = icmp ult i64 %11, %16
  br label %18

18:                                               ; preds = %10, %2
  %19 = phi i1 [ false, %2 ], [ %17, %10 ]
  ret i1 %19
}

; Function Attrs: mustprogress uwtable
define linkonce_odr noundef zeroext i1 @_ZN7rocksdb10BufferInfo21DoesBufferContainDataEv(ptr noundef nonnull align 8 dereferenceable(144) %0) #0 comdat align 2 {
  %2 = alloca ptr, align 8
  store ptr %0, ptr %2, align 8, !tbaa !9
  %3 = load ptr, ptr %2, align 8
  %4 = getelementptr inbounds nuw %"struct.rocksdb::BufferInfo", ptr %3, i32 0, i32 0
  %5 = call noundef i64 @_ZNK7rocksdb13AlignedBuffer11CurrentSizeEv(ptr noundef nonnull align 8 dereferenceable(72) %4)
  %6 = icmp ugt i64 %5, 0
  ret i1 %6
}

; Function Attrs: mustprogress nounwind uwtable
define linkonce_odr noundef ptr @_ZN7rocksdb18FilePrefetchBuffer14GetFirstBufferEv(ptr noundef nonnull align 8 dereferenceable(320) %0) #2 comdat align 2 {
  %2 = alloca ptr, align 8
  store ptr %0, ptr %2, align 8, !tbaa !4
  %3 = load ptr, ptr %2, align 8
  %4 = getelementptr inbounds nuw %"class.rocksdb::FilePrefetchBuffer", ptr %3, i32 0, i32 0
  %5 = call noundef nonnull align 8 dereferenceable(8) ptr @_ZNSt5dequeIPN7rocksdb10BufferInfoESaIS2_EE5frontEv(ptr noundef nonnull align 8 dereferenceable(80) %4) #16
  %6 = load ptr, ptr %5, align 8, !tbaa !9
  ret ptr %6
}

; Function Attrs: mustprogress nounwind uwtable
define linkonce_odr noundef zeroext i1 @_ZN7rocksdb18FilePrefetchBuffer18IsBufferQueueEmptyEv(ptr noundef nonnull align 8 dereferenceable(320) %0) #2 comdat align 2 {
  %2 = alloca ptr, align 8
  store ptr %0, ptr %2, align 8, !tbaa !4
  %3 = load ptr, ptr %2, align 8
  %4 = getelementptr inbounds nuw %"class.rocksdb::FilePrefetchBuffer", ptr %3, i32 0, i32 0
  %5 = call noundef zeroext i1 @_ZNKSt5dequeIPN7rocksdb10BufferInfoESaIS2_EE5emptyEv(ptr noundef nonnull align 8 dereferenceable(80) %4) #16
  ret i1 %5
}

; Function Attrs: mustprogress uwtable
define void @_ZN7rocksdb18FilePrefetchBuffer25HandleOverlappingSyncDataEmmRmS1_Rb(ptr noundef nonnull align 8 dereferenceable(320) %0, i64 noundef %1, i64 noundef %2, ptr noundef nonnull align 8 dereferenceable(8) %3, ptr noundef nonnull align 8 dereferenceable(8) %4, ptr noundef nonnull align 1 dereferenceable(1) %5) #0 align 2 {
  %7 = alloca ptr, align 8
  %8 = alloca i64, align 8
  %9 = alloca i64, align 8
  %10 = alloca ptr, align 8
  %11 = alloca ptr, align 8
  %12 = alloca ptr, align 8
  %13 = alloca ptr, align 8
  store ptr %0, ptr %7, align 8, !tbaa !4
  store i64 %1, ptr %8, align 8, !tbaa !11
  store i64 %2, ptr %9, align 8, !tbaa !11
  store ptr %3, ptr %10, align 8, !tbaa !15
  store ptr %4, ptr %11, align 8, !tbaa !15
  store ptr %5, ptr %12, align 8, !tbaa !177
  %14 = load ptr, ptr %7, align 8
  %15 = call noundef zeroext i1 @_ZN7rocksdb18FilePrefetchBuffer18IsBufferQueueEmptyEv(ptr noundef nonnull align 8 dereferenceable(320) %14)
  br i1 %15, label %16, label %17

16:                                               ; preds = %6
  br label %63

17:                                               ; preds = %6
  call void @llvm.lifetime.start.p0(i64 8, ptr %13) #16
  %18 = call noundef ptr @_ZN7rocksdb18FilePrefetchBuffer14GetFirstBufferEv(ptr noundef nonnull align 8 dereferenceable(320) %14)
  store ptr %18, ptr %13, align 8, !tbaa !9
  %19 = load ptr, ptr %13, align 8, !tbaa !9
  %20 = getelementptr inbounds nuw %"struct.rocksdb::BufferInfo", ptr %19, i32 0, i32 3
  %21 = load i8, ptr %20, align 8, !tbaa !101, !range !31, !noundef !32
  %22 = trunc i8 %21 to i1
  br i1 %22, label %62, label %23

23:                                               ; preds = %17
  %24 = load ptr, ptr %13, align 8, !tbaa !9
  %25 = call noundef zeroext i1 @_ZN7rocksdb10BufferInfo21DoesBufferContainDataEv(ptr noundef nonnull align 8 dereferenceable(144) %24)
  br i1 %25, label %26, label %62

26:                                               ; preds = %23
  %27 = load ptr, ptr %13, align 8, !tbaa !9
  %28 = load i64, ptr %8, align 8, !tbaa !11
  %29 = call noundef zeroext i1 @_ZN7rocksdb10BufferInfo16IsOffsetInBufferEm(ptr noundef nonnull align 8 dereferenceable(144) %27, i64 noundef %28)
  br i1 %29, label %30, label %62

30:                                               ; preds = %26
  %31 = load ptr, ptr %13, align 8, !tbaa !9
  %32 = getelementptr inbounds nuw %"struct.rocksdb::BufferInfo", ptr %31, i32 0, i32 1
  %33 = load i64, ptr %32, align 8, !tbaa !17
  %34 = load ptr, ptr %13, align 8, !tbaa !9
  %35 = call noundef i64 @_ZN7rocksdb10BufferInfo11CurrentSizeEv(ptr noundef nonnull align 8 dereferenceable(144) %34)
  %36 = add i64 %33, %35
  %37 = load i64, ptr %8, align 8, !tbaa !11
  %38 = load i64, ptr %9, align 8, !tbaa !11
  %39 = add i64 %37, %38
  %40 = icmp ult i64 %36, %39
  br i1 %40, label %41, label %62

41:                                               ; preds = %30
  %42 = load ptr, ptr %12, align 8, !tbaa !177
  store i8 1, ptr %42, align 1, !tbaa !13
  %43 = getelementptr inbounds nuw %"class.rocksdb::FilePrefetchBuffer", ptr %14, i32 0, i32 2
  %44 = load ptr, ptr %43, align 8, !tbaa !121
  call void @_ZN7rocksdb10BufferInfo11ClearBufferEv(ptr noundef nonnull align 8 dereferenceable(144) %44)
  %45 = getelementptr inbounds nuw %"class.rocksdb::FilePrefetchBuffer", ptr %14, i32 0, i32 2
  %46 = load ptr, ptr %45, align 8, !tbaa !121
  %47 = getelementptr inbounds nuw %"struct.rocksdb::BufferInfo", ptr %46, i32 0, i32 0
  call void @_ZN7rocksdb13AlignedBuffer9AlignmentEm(ptr noundef nonnull align 8 dereferenceable(72) %47, i64 noundef 1)
  %48 = getelementptr inbounds nuw %"class.rocksdb::FilePrefetchBuffer", ptr %14, i32 0, i32 2
  %49 = load ptr, ptr %48, align 8, !tbaa !121
  %50 = getelementptr inbounds nuw %"struct.rocksdb::BufferInfo", ptr %49, i32 0, i32 0
  %51 = load i64, ptr %9, align 8, !tbaa !11
  call void @_ZN7rocksdb13AlignedBuffer17AllocateNewBufferEmbmm(ptr noundef nonnull align 8 dereferenceable(72) %50, i64 noundef %51, i1 noundef zeroext false, i64 noundef 0, i64 noundef 0)
  %52 = load i64, ptr %8, align 8, !tbaa !11
  %53 = getelementptr inbounds nuw %"class.rocksdb::FilePrefetchBuffer", ptr %14, i32 0, i32 2
  %54 = load ptr, ptr %53, align 8, !tbaa !121
  %55 = getelementptr inbounds nuw %"struct.rocksdb::BufferInfo", ptr %54, i32 0, i32 1
  store i64 %52, ptr %55, align 8, !tbaa !17
  %56 = load ptr, ptr %13, align 8, !tbaa !9
  %57 = load ptr, ptr %10, align 8, !tbaa !15
  %58 = load ptr, ptr %11, align 8, !tbaa !15
  call void @_ZN7rocksdb18FilePrefetchBuffer23CopyDataToOverlapBufferEPNS_10BufferInfoERmS3_(ptr noundef nonnull align 8 dereferenceable(320) %14, ptr noundef %56, ptr noundef nonnull align 8 dereferenceable(8) %57, ptr noundef nonnull align 8 dereferenceable(8) %58)
  %59 = getelementptr inbounds nuw %"class.rocksdb::FilePrefetchBuffer", ptr %14, i32 0, i32 2
  %60 = load ptr, ptr %59, align 8, !tbaa !121
  %61 = call noundef i64 @_ZN7rocksdb10BufferInfo11CurrentSizeEv(ptr noundef nonnull align 8 dereferenceable(144) %60)
  call void @_ZN7rocksdb18FilePrefetchBuffer11UpdateStatsEbm(ptr noundef nonnull align 8 dereferenceable(320) %14, i1 noundef zeroext false, i64 noundef %61)
  br label %62

62:                                               ; preds = %41, %30, %26, %23, %17
  call void @llvm.lifetime.end.p0(i64 8, ptr %13) #16
  br label %63

63:                                               ; preds = %62, %16
  ret void
}