; Function Attrs: mustprogress uwtable
define void @_ZN7rocksdb18FilePrefetchBuffer25HandleOverlappingSyncDataEmmRmS1_Rb(ptr noundef nonnull align 8 dereferenceable(320) %0, i64 noundef %1, i64 noundef %2, ptr noundef nonnull align 8 captures(none) dereferenceable(8) %3, ptr noundef nonnull align 8 captures(none) dereferenceable(8) %4, ptr noundef nonnull writeonly align 1 captures(none) dereferenceable(1) %5) local_unnamed_addr #0 align 2 {
  %7 = getelementptr inbounds nuw i8, ptr %0, i64 48
  %8 = getelementptr inbounds nuw i8, ptr %0, i64 16
  %9 = load ptr, ptr %7, align 8, !tbaa !97
  %10 = load ptr, ptr %8, align 8, !tbaa !97
  %11 = icmp eq ptr %9, %10
  br i1 %11, label %_ZN7rocksdb18FilePrefetchBuffer11UpdateStatsEbm.exit, label %12

12:                                               ; preds = %6
  %13 = load ptr, ptr %10, align 8, !tbaa !101
  %14 = getelementptr inbounds nuw i8, ptr %13, i64 88
  %15 = load i8, ptr %14, align 8, !tbaa !92, !range !43, !noundef !44
  %16 = trunc nuw i8 %15 to i1
  br i1 %16, label %_ZN7rocksdb18FilePrefetchBuffer11UpdateStatsEbm.exit, label %17

17:                                               ; preds = %12
  %18 = getelementptr inbounds nuw i8, ptr %13, i64 56
  %19 = load i64, ptr %18, align 8, !tbaa !4
  %.not = icmp eq i64 %19, 0
  br i1 %.not, label %_ZN7rocksdb18FilePrefetchBuffer11UpdateStatsEbm.exit, label %20

20:                                               ; preds = %17
  %21 = getelementptr inbounds nuw i8, ptr %13, i64 72
  %22 = load i64, ptr %21, align 8, !tbaa !21
  %.not.i = icmp uge i64 %1, %22
  %23 = add i64 %22, %19
  %24 = icmp ult i64 %1, %23
  %25 = and i1 %.not.i, %24
  %26 = add i64 %2, %1
  %27 = icmp ult i64 %23, %26
  %or.cond = and i1 %27, %25
  br i1 %or.cond, label %28, label %_ZN7rocksdb18FilePrefetchBuffer11UpdateStatsEbm.exit

28:                                               ; preds = %20
  store i8 1, ptr %5, align 1, !tbaa !42
  %29 = getelementptr inbounds nuw i8, ptr %0, i64 160
  %30 = load ptr, ptr %29, align 8, !tbaa !144
  %31 = getelementptr inbounds nuw i8, ptr %30, i64 56
  store i64 0, ptr %31, align 8, !tbaa !4
  %32 = getelementptr inbounds nuw i8, ptr %30, i64 136
  store i64 0, ptr %32, align 8, !tbaa !84
  %33 = getelementptr inbounds nuw i8, ptr %30, i64 80
  store i64 0, ptr %33, align 8, !tbaa !87
  store i64 1, ptr %30, align 8, !tbaa !26
  tail call void @_ZN7rocksdb13AlignedBuffer17AllocateNewBufferEmbmm(ptr noundef nonnull align 8 dereferenceable(72) %30, i64 noundef %2, i1 noundef zeroext false, i64 noundef 0, i64 noundef 0)
  %34 = load ptr, ptr %29, align 8, !tbaa !144
  %35 = getelementptr inbounds nuw i8, ptr %34, i64 72
  store i64 %1, ptr %35, align 8, !tbaa !21
  tail call void @_ZN7rocksdb18FilePrefetchBuffer23CopyDataToOverlapBufferEPNS_10BufferInfoERmS3_(ptr noundef nonnull align 8 dereferenceable(320) %0, ptr noundef nonnull %13, ptr noundef nonnull align 8 dereferenceable(8) %3, ptr noundef nonnull align 8 dereferenceable(8) %4)
  %36 = load ptr, ptr %29, align 8, !tbaa !144
  %37 = getelementptr inbounds nuw i8, ptr %36, i64 56
  %38 = load i64, ptr %37, align 8, !tbaa !4
  %.not.i14 = icmp eq i64 %38, 0
  br i1 %.not.i14, label %_ZN7rocksdb18FilePrefetchBuffer11UpdateStatsEbm.exit, label %39

39:                                               ; preds = %28
  %40 = getelementptr inbounds nuw i8, ptr %0, i64 264
  %41 = load ptr, ptr %40, align 8, !tbaa !76
  %.not.i3.i = icmp eq ptr %41, null
  br i1 %.not.i3.i, label %_ZN7rocksdb18FilePrefetchBuffer11UpdateStatsEbm.exit, label %42

42:                                               ; preds = %39
  %43 = load ptr, ptr %41, align 8, !tbaa !77
  %44 = getelementptr inbounds nuw i8, ptr %43, i64 176
  %45 = load ptr, ptr %44, align 8
  tail call void %45(ptr noundef nonnull align 8 dereferenceable(33) %41, i32 noundef 209, i64 noundef %38)
  br label %_ZN7rocksdb18FilePrefetchBuffer11UpdateStatsEbm.exit

_ZN7rocksdb18FilePrefetchBuffer11UpdateStatsEbm.exit: ; preds = %42, %39, %28, %12, %17, %20, %6
  ret void
}